; Function Attrs: nounwind uwtable
define range(i32 -1, 1) i32 @H5D__layout_compact_dirty_test(i64 noundef %0, ptr noundef writeonly %1) local_unnamed_addr #0 {
  %3 = tail call ptr @H5VL_object_verify(i64 noundef %0, i32 noundef 5) #2
  %4 = icmp eq ptr %3, null
  br i1 %4, label %5, label %9

5:                                                ; preds = %2
  %6 = load i64, ptr @H5E_DATASET_g, align 8
  %7 = load i64, ptr @H5E_BADTYPE_g, align 8
  %8 = tail call i32 (ptr, ptr, i32, i64, i64, ptr, ...) @H5E_printf_stack(ptr noundef nonnull @.str, ptr noundef nonnull @__func__.H5D__layout_compact_dirty_test, i32 noundef 160, i64 noundef %6, i64 noundef %7, ptr noundef nonnull @.str.1) #2
  br label %16

9:                                                ; preds = %2
  %.not = icmp eq ptr %1, null
  br i1 %.not, label %16, label %10

10:                                               ; preds = %9
  %11 = getelementptr inbounds i8, ptr %3, i64 48
  %12 = load ptr, ptr %11, align 8
  %13 = getelementptr inbounds i8, ptr %12, i64 2168
  %14 = load i8, ptr %13, align 8
  %15 = and i8 %14, 1
  store i8 %15, ptr %1, align 1
  br label %16

16:                                               ; preds = %9, %10, %5
  %.0 = phi i32 [ -1, %5 ], [ 0, %10 ], [ 0, %9 ]
  ret i32 %.0
}